target datalayout = "e-m:e-p270:32:32-p271:32:32-p272:64:64-i64:64-i128:128-f80:128-n8:16:32:64-S128"
target triple = "x86_64-unknown-linux-gnu"

%"class.rocksdb::Slice" = type { ptr, i64 }
%"class.rocksdb::CuckooTableIterator" = type { %"class.rocksdb::InternalIteratorBase", %"struct.rocksdb::CuckooTableIterator::BucketComparator", ptr, i8, %"class.std::vector.108", i32, %"class.rocksdb::Slice", %"class.rocksdb::IterKey" }
%"class.rocksdb::InternalIteratorBase" = type { ptr, %"class.rocksdb::Cleanable" }
%"class.rocksdb::Cleanable" = type { %"struct.rocksdb::Cleanable::Cleanup" }
%"struct.rocksdb::Cleanable::Cleanup" = type { ptr, ptr, ptr, ptr }
%"struct.rocksdb::CuckooTableIterator::BucketComparator" = type { %"class.rocksdb::Slice", ptr, i32, i32, %"class.rocksdb::Slice" }
%"class.std::vector.108" = type { %"struct.std::_Vector_base.109" }
%"struct.std::_Vector_base.109" = type { %"struct.std::_Vector_base<unsigned int, std::allocator<unsigned int>>::_Vector_impl" }
%"struct.std::_Vector_base<unsigned int, std::allocator<unsigned int>>::_Vector_impl" = type { %"struct.std::_Vector_base<unsigned int, std::allocator<unsigned int>>::_Vector_impl_data" }
%"struct.std::_Vector_base<unsigned int, std::allocator<unsigned int>>::_Vector_impl_data" = type { ptr, ptr, ptr }
%"class.rocksdb::IterKey" = type { ptr, ptr, i64, i64, [39 x i8], i8 }

@.str.11 = private unnamed_addr constant [1 x i8] zeroinitializer, align 1

; Function Attrs: mustprogress nounwind uwtable
define linkonce_odr void @_ZN7rocksdb7IterKey5ClearEv(ptr noundef nonnull align 8 dereferenceable(72) %this) #1 comdat align 2 {
entry:
  %this.addr = alloca ptr, align 8
  store ptr %this, ptr %this.addr, align 8
  %this1 = load ptr, ptr %this.addr, align 8
  %key_size_ = getelementptr inbounds %"class.rocksdb::IterKey", ptr %this1, i32 0, i32 2
  store i64 0, ptr %key_size_, align 8
  ret void
}

; Function Attrs: mustprogress nounwind uwtable
define linkonce_odr void @_ZN7rocksdb5Slice5clearEv(ptr noundef nonnull align 8 dereferenceable(16) %this) #1 comdat align 2 {
entry:
  %this.addr = alloca ptr, align 8
  store ptr %this, ptr %this.addr, align 8
  %this1 = load ptr, ptr %this.addr, align 8
  %data_ = getelementptr inbounds %"class.rocksdb::Slice", ptr %this1, i32 0, i32 0
  store ptr @.str.11, ptr %data_, align 8
  %size_ = getelementptr inbounds %"class.rocksdb::Slice", ptr %this1, i32 0, i32 1
  store i64 0, ptr %size_, align 8
  ret void
}

; Function Attrs: mustprogress uwtable
define void @_ZN7rocksdb19CuckooTableIterator4NextEv(ptr noundef nonnull align 8 dereferenceable(224) %this) unnamed_addr #0 align 2 {
entry:
  %this.addr = alloca ptr, align 8
  store ptr %this, ptr %this.addr, align 8
  %this1 = load ptr, ptr %this.addr, align 8
  %vtable = load ptr, ptr %this1, align 8
  %vfn = getelementptr inbounds ptr, ptr %vtable, i64 3
  %0 = load ptr, ptr %vfn, align 8
  %call = call noundef zeroext i1 %0(ptr noundef nonnull align 8 dereferenceable(224) %this1)
  br i1 %call, label %if.end, label %if.then

if.then:                                          ; preds = %entry
  %curr_value_ = getelementptr inbounds %"class.rocksdb::CuckooTableIterator", ptr %this1, i32 0, i32 6
  call void @_ZN7rocksdb5Slice5clearEv(ptr noundef nonnull align 8 dereferenceable(16) %curr_value_)
  %curr_key_ = getelementptr inbounds %"class.rocksdb::CuckooTableIterator", ptr %this1, i32 0, i32 7
  call void @_ZN7rocksdb7IterKey5ClearEv(ptr noundef nonnull align 8 dereferenceable(72) %curr_key_)
  br label %return

if.end:                                           ; preds = %entry
  %curr_key_idx_ = getelementptr inbounds %"class.rocksdb::CuckooTableIterator", ptr %this1, i32 0, i32 5
  %1 = load i32, ptr %curr_key_idx_, align 8
  %inc = add i32 %1, 1
  store i32 %inc, ptr %curr_key_idx_, align 8
  call void @_ZN7rocksdb19CuckooTableIterator18PrepareKVAtCurrIdxEv(ptr noundef nonnull align 8 dereferenceable(224) %this1)
  br label %return

return:                                           ; preds = %if.end, %if.then
  ret void
}