; Function Attrs: mustprogress uwtable
define void @_ZN7rocksdb19CuckooTableIterator4NextEv(ptr noundef nonnull align 8 dereferenceable(224) %this) unnamed_addr #2 align 2 {
entry:
  %vtable = load ptr, ptr %this, align 8
  %vfn = getelementptr inbounds i8, ptr %vtable, i64 24
  %0 = load ptr, ptr %vfn, align 8
  %call = tail call noundef zeroext i1 %0(ptr noundef nonnull align 8 dereferenceable(224) %this)
  br i1 %call, label %if.end, label %if.then

if.then:                                          ; preds = %entry
  %curr_value_ = getelementptr inbounds i8, ptr %this, i64 136
  store ptr @.str.11, ptr %curr_value_, align 8
  %size_.i = getelementptr inbounds i8, ptr %this, i64 144
  store i64 0, ptr %size_.i, align 8
  %key_size_.i = getelementptr inbounds i8, ptr %this, i64 168
  store i64 0, ptr %key_size_.i, align 8
  br label %return

if.end:                                           ; preds = %entry
  %curr_key_idx_ = getelementptr inbounds i8, ptr %this, i64 128
  %1 = load i32, ptr %curr_key_idx_, align 8
  %inc = add i32 %1, 1
  store i32 %inc, ptr %curr_key_idx_, align 8
  tail call void @_ZN7rocksdb19CuckooTableIterator18PrepareKVAtCurrIdxEv(ptr noundef nonnull align 8 dereferenceable(224) %this)
  br label %return

return:                                           ; preds = %if.end, %if.then
  ret void
}